target datalayout = "e-m:e-p270:32:32-p271:32:32-p272:64:64-i64:64-i128:128-f80:128-n8:16:32:64-S128"
target triple = "x86_64-pc-linux-gnu"

%struct.SN_env = type { ptr, i32, i32, i32, i32, i32, ptr, ptr }

@g_v2 = internal constant [4 x i8] c"QA\00\01", align 1
@s_80 = internal constant [6 x i8] c"\CE\B5\CF\84\CE\B5", align 1
@s_81 = internal constant [4 x i8] c"\CE\B5\CF\84", align 1
@s_82 = internal constant [4 x i8] c"\CE\B5\CF\84", align 1
@s_83 = internal constant [4 x i8] c"\CE\B5\CF\84", align 1
@a_40 = internal constant [1 x { i32, [4 x i8], ptr, i32, i32, ptr }] [{ i32, [4 x i8], ptr, i32, i32, ptr } { i32 10, [4 x i8] zeroinitializer, ptr @s_40_0, i32 -1, i32 1, ptr null }], align 16

; Function Attrs: nounwind uwtable
define internal i32 @r_step5c(ptr noundef %0) #0 {
  %2 = alloca i32, align 4
  %3 = alloca ptr, align 8
  %4 = alloca i32, align 4
  %5 = alloca i32, align 4
  %6 = alloca i32, align 4
  %7 = alloca i32, align 4
  %8 = alloca i32, align 4
  %9 = alloca i32, align 4
  %10 = alloca i32, align 4
  %11 = alloca i32, align 4
  store ptr %0, ptr %3, align 8
  call void @llvm.lifetime.start.p0(i64 4, ptr %4) #3
  %12 = load ptr, ptr %3, align 8
  %13 = getelementptr inbounds nuw %struct.SN_env, ptr %12, i32 0, i32 2
  %14 = load i32, ptr %13, align 4
  %15 = load ptr, ptr %3, align 8
  %16 = getelementptr inbounds nuw %struct.SN_env, ptr %15, i32 0, i32 1
  %17 = load i32, ptr %16, align 8
  %18 = sub i32 %14, %17
  store i32 %18, ptr %4, align 4
  %19 = load ptr, ptr %3, align 8
  %20 = getelementptr inbounds nuw %struct.SN_env, ptr %19, i32 0, i32 1
  %21 = load i32, ptr %20, align 8
  %22 = load ptr, ptr %3, align 8
  %23 = getelementptr inbounds nuw %struct.SN_env, ptr %22, i32 0, i32 5
  store i32 %21, ptr %23, align 8
  %24 = load ptr, ptr %3, align 8
  %25 = getelementptr inbounds nuw %struct.SN_env, ptr %24, i32 0, i32 1
  %26 = load i32, ptr %25, align 8
  %27 = sub i32 %26, 9
  %28 = load ptr, ptr %3, align 8
  %29 = getelementptr inbounds nuw %struct.SN_env, ptr %28, i32 0, i32 3
  %30 = load i32, ptr %29, align 8
  %31 = icmp sle i32 %27, %30
  br i1 %31, label %45, label %32

32:                                               ; preds = %1
  %33 = load ptr, ptr %3, align 8
  %34 = getelementptr inbounds nuw %struct.SN_env, ptr %33, i32 0, i32 0
  %35 = load ptr, ptr %34, align 8
  %36 = load ptr, ptr %3, align 8
  %37 = getelementptr inbounds nuw %struct.SN_env, ptr %36, i32 0, i32 1
  %38 = load i32, ptr %37, align 8
  %39 = sub i32 %38, 1
  %40 = sext i32 %39 to i64
  %41 = getelementptr inbounds i8, ptr %35, i64 %40
  %42 = load i8, ptr %41, align 1
  %43 = zext i8 %42 to i32
  %44 = icmp ne i32 %43, 181
  br i1 %44, label %45, label %46

45:                                               ; preds = %32, %1
  br label %71

46:                                               ; preds = %32
  %47 = load ptr, ptr %3, align 8
  %48 = call i32 @find_among_b(ptr noundef %47, ptr noundef @a_40, i32 noundef 1)
  %49 = icmp ne i32 %48, 0
  br i1 %49, label %51, label %50

50:                                               ; preds = %46
  br label %71

51:                                               ; preds = %46
  %52 = load ptr, ptr %3, align 8
  %53 = getelementptr inbounds nuw %struct.SN_env, ptr %52, i32 0, i32 1
  %54 = load i32, ptr %53, align 8
  %55 = load ptr, ptr %3, align 8
  %56 = getelementptr inbounds nuw %struct.SN_env, ptr %55, i32 0, i32 4
  store i32 %54, ptr %56, align 4
  call void @llvm.lifetime.start.p0(i64 4, ptr %5) #3
  %57 = load ptr, ptr %3, align 8
  %58 = call i32 @slice_del(ptr noundef %57)
  store i32 %58, ptr %5, align 4
  %59 = load i32, ptr %5, align 4
  %60 = icmp slt i32 %59, 0
  br i1 %60, label %61, label %63

61:                                               ; preds = %51
  %62 = load i32, ptr %5, align 4
  store i32 %62, ptr %2, align 4
  store i32 1, ptr %6, align 4
  br label %64

63:                                               ; preds = %51
  store i32 0, ptr %6, align 4
  br label %64

64:                                               ; preds = %63, %61
  call void @llvm.lifetime.end.p0(i64 4, ptr %5) #3
  %65 = load i32, ptr %6, align 4
  switch i32 %65, label %79 [
    i32 0, label %66
  ]

66:                                               ; preds = %64
  %67 = load ptr, ptr %3, align 8
  %68 = getelementptr inbounds nuw %struct.SN_env, ptr %67, i32 0, i32 7
  %69 = load ptr, ptr %68, align 8
  %70 = getelementptr inbounds i32, ptr %69, i64 0
  store i32 0, ptr %70, align 4
  br label %71

71:                                               ; preds = %66, %50, %45
  %72 = load ptr, ptr %3, align 8
  %73 = getelementptr inbounds nuw %struct.SN_env, ptr %72, i32 0, i32 2
  %74 = load i32, ptr %73, align 4
  %75 = load i32, ptr %4, align 4
  %76 = sub i32 %74, %75
  %77 = load ptr, ptr %3, align 8
  %78 = getelementptr inbounds nuw %struct.SN_env, ptr %77, i32 0, i32 1
  store i32 %76, ptr %78, align 8
  store i32 0, ptr %6, align 4
  br label %79

79:                                               ; preds = %71, %64
  call void @llvm.lifetime.end.p0(i64 4, ptr %4) #3
  %80 = load i32, ptr %6, align 4
  switch i32 %80, label %224 [
    i32 0, label %81
    i32 1, label %222
  ]

81:                                               ; preds = %79
  %82 = load ptr, ptr %3, align 8
  %83 = getelementptr inbounds nuw %struct.SN_env, ptr %82, i32 0, i32 1
  %84 = load i32, ptr %83, align 8
  %85 = load ptr, ptr %3, align 8
  %86 = getelementptr inbounds nuw %struct.SN_env, ptr %85, i32 0, i32 5
  store i32 %84, ptr %86, align 8
  %87 = load ptr, ptr %3, align 8
  %88 = call i32 @eq_s_b(ptr noundef %87, i32 noundef 6, ptr noundef @s_80)
  %89 = icmp ne i32 %88, 0
  br i1 %89, label %91, label %90

90:                                               ; preds = %81
  store i32 0, ptr %2, align 4
  br label %222

91:                                               ; preds = %81
  %92 = load ptr, ptr %3, align 8
  %93 = getelementptr inbounds nuw %struct.SN_env, ptr %92, i32 0, i32 1
  %94 = load i32, ptr %93, align 8
  %95 = load ptr, ptr %3, align 8
  %96 = getelementptr inbounds nuw %struct.SN_env, ptr %95, i32 0, i32 4
  store i32 %94, ptr %96, align 4
  call void @llvm.lifetime.start.p0(i64 4, ptr %7) #3
  %97 = load ptr, ptr %3, align 8
  %98 = call i32 @slice_del(ptr noundef %97)
  store i32 %98, ptr %7, align 4
  %99 = load i32, ptr %7, align 4
  %100 = icmp slt i32 %99, 0
  br i1 %100, label %101, label %103

101:                                              ; preds = %91
  %102 = load i32, ptr %7, align 4
  store i32 %102, ptr %2, align 4
  store i32 1, ptr %6, align 4
  br label %104

103:                                              ; preds = %91
  store i32 0, ptr %6, align 4
  br label %104

104:                                              ; preds = %103, %101
  call void @llvm.lifetime.end.p0(i64 4, ptr %7) #3
  %105 = load i32, ptr %6, align 4
  switch i32 %105, label %224 [
    i32 0, label %106
    i32 1, label %222
  ]

106:                                              ; preds = %104
  %107 = load ptr, ptr %3, align 8
  %108 = getelementptr inbounds nuw %struct.SN_env, ptr %107, i32 0, i32 7
  %109 = load ptr, ptr %108, align 8
  %110 = getelementptr inbounds i32, ptr %109, i64 0
  store i32 0, ptr %110, align 4
  call void @llvm.lifetime.start.p0(i64 4, ptr %8) #3
  %111 = load ptr, ptr %3, align 8
  %112 = getelementptr inbounds nuw %struct.SN_env, ptr %111, i32 0, i32 2
  %113 = load i32, ptr %112, align 4
  %114 = load ptr, ptr %3, align 8
  %115 = getelementptr inbounds nuw %struct.SN_env, ptr %114, i32 0, i32 1
  %116 = load i32, ptr %115, align 8
  %117 = sub i32 %113, %116
  store i32 %117, ptr %8, align 4
  %118 = load ptr, ptr %3, align 8
  %119 = getelementptr inbounds nuw %struct.SN_env, ptr %118, i32 0, i32 1
  %120 = load i32, ptr %119, align 8
  %121 = load ptr, ptr %3, align 8
  %122 = getelementptr inbounds nuw %struct.SN_env, ptr %121, i32 0, i32 5
  store i32 %120, ptr %122, align 8
  %123 = load ptr, ptr %3, align 8
  %124 = getelementptr inbounds nuw %struct.SN_env, ptr %123, i32 0, i32 1
  %125 = load i32, ptr %124, align 8
  %126 = load ptr, ptr %3, align 8
  %127 = getelementptr inbounds nuw %struct.SN_env, ptr %126, i32 0, i32 4
  store i32 %125, ptr %127, align 4
  %128 = load ptr, ptr %3, align 8
  %129 = call i32 @in_grouping_b_U(ptr noundef %128, ptr noundef @g_v2, i32 noundef 945, i32 noundef 969, i32 noundef 0)
  %130 = icmp ne i32 %129, 0
  br i1 %130, label %131, label %132

131:                                              ; preds = %106
  br label %143

132:                                              ; preds = %106
  call void @llvm.lifetime.start.p0(i64 4, ptr %9) #3
  %133 = load ptr, ptr %3, align 8
  %134 = call i32 @slice_from_s(ptr noundef %133, i32 noundef 4, ptr noundef @s_81)
  store i32 %134, ptr %9, align 4
  %135 = load i32, ptr %9, align 4
  %136 = icmp slt i32 %135, 0
  br i1 %136, label %137, label %139

137:                                              ; preds = %132
  %138 = load i32, ptr %9, align 4
  store i32 %138, ptr %2, align 4
  store i32 1, ptr %6, align 4
  br label %140

139:                                              ; preds = %132
  store i32 0, ptr %6, align 4
  br label %140

140:                                              ; preds = %139, %137
  call void @llvm.lifetime.end.p0(i64 4, ptr %9) #3
  %141 = load i32, ptr %6, align 4
  switch i32 %141, label %189 [
    i32 0, label %142
  ]

142:                                              ; preds = %140
  store i32 4, ptr %6, align 4
  br label %189

143:                                              ; preds = %131
  %144 = load ptr, ptr %3, align 8
  %145 = getelementptr inbounds nuw %struct.SN_env, ptr %144, i32 0, i32 2
  %146 = load i32, ptr %145, align 4
  %147 = load i32, ptr %8, align 4
  %148 = sub i32 %146, %147
  %149 = load ptr, ptr %3, align 8
  %150 = getelementptr inbounds nuw %struct.SN_env, ptr %149, i32 0, i32 1
  store i32 %148, ptr %150, align 8
  %151 = load ptr, ptr %3, align 8
  %152 = getelementptr inbounds nuw %struct.SN_env, ptr %151, i32 0, i32 1
  %153 = load i32, ptr %152, align 8
  %154 = load ptr, ptr %3, align 8
  %155 = getelementptr inbounds nuw %struct.SN_env, ptr %154, i32 0, i32 5
  store i32 %153, ptr %155, align 8
  %156 = load ptr, ptr %3, align 8
  %157 = getelementptr inbounds nuw %struct.SN_env, ptr %156, i32 0, i32 1
  %158 = load i32, ptr %157, align 8
  %159 = load ptr, ptr %3, align 8
  %160 = getelementptr inbounds nuw %struct.SN_env, ptr %159, i32 0, i32 4
  store i32 %158, ptr %160, align 4
  %161 = load ptr, ptr %3, align 8
  %162 = call i32 @find_among_b(ptr noundef %161, ptr noundef @a_41, i32 noundef 31)
  %163 = icmp ne i32 %162, 0
  br i1 %163, label %165, label %164

164:                                              ; preds = %143
  br label %176

165:                                              ; preds = %143
  call void @llvm.lifetime.start.p0(i64 4, ptr %10) #3
  %166 = load ptr, ptr %3, align 8
  %167 = call i32 @slice_from_s(ptr noundef %166, i32 noundef 4, ptr noundef @s_82)
  store i32 %167, ptr %10, align 4
  %168 = load i32, ptr %10, align 4
  %169 = icmp slt i32 %168, 0
  br i1 %169, label %170, label %172

170:                                              ; preds = %165
  %171 = load i32, ptr %10, align 4
  store i32 %171, ptr %2, align 4
  store i32 1, ptr %6, align 4
  br label %173

172:                                              ; preds = %165
  store i32 0, ptr %6, align 4
  br label %173

173:                                              ; preds = %172, %170
  call void @llvm.lifetime.end.p0(i64 4, ptr %10) #3
  %174 = load i32, ptr %6, align 4
  switch i32 %174, label %189 [
    i32 0, label %175
  ]

175:                                              ; preds = %173
  store i32 4, ptr %6, align 4
  br label %189

176:                                              ; preds = %164
  %177 = load ptr, ptr %3, align 8
  %178 = getelementptr inbounds nuw %struct.SN_env, ptr %177, i32 0, i32 2
  %179 = load i32, ptr %178, align 4
  %180 = load i32, ptr %8, align 4
  %181 = sub i32 %179, %180
  %182 = load ptr, ptr %3, align 8
  %183 = getelementptr inbounds nuw %struct.SN_env, ptr %182, i32 0, i32 1
  store i32 %181, ptr %183, align 8
  %184 = load ptr, ptr %3, align 8
  %185 = getelementptr inbounds nuw %struct.SN_env, ptr %184, i32 0, i32 1
  %186 = load i32, ptr %185, align 8
  %187 = load ptr, ptr %3, align 8
  %188 = getelementptr inbounds nuw %struct.SN_env, ptr %187, i32 0, i32 5
  store i32 %186, ptr %188, align 8
  store i32 0, ptr %6, align 4
  br label %189

189:                                              ; preds = %175, %142, %176, %173, %140
  call void @llvm.lifetime.end.p0(i64 4, ptr %8) #3
  %190 = load i32, ptr %6, align 4
  switch i32 %190, label %224 [
    i32 0, label %191
    i32 1, label %222
    i32 4, label %192
  ]

191:                                              ; preds = %189
  br label %192

192:                                              ; preds = %191, %189
  %193 = load ptr, ptr %3, align 8
  %194 = getelementptr inbounds nuw %struct.SN_env, ptr %193, i32 0, i32 1
  %195 = load i32, ptr %194, align 8
  %196 = load ptr, ptr %3, align 8
  %197 = getelementptr inbounds nuw %struct.SN_env, ptr %196, i32 0, i32 4
  store i32 %195, ptr %197, align 4
  %198 = load ptr, ptr %3, align 8
  %199 = call i32 @find_among_b(ptr noundef %198, ptr noundef @a_42, i32 noundef 25)
  %200 = icmp ne i32 %199, 0
  br i1 %200, label %202, label %201

201:                                              ; preds = %192
  store i32 0, ptr %2, align 4
  br label %222

202:                                              ; preds = %192
  %203 = load ptr, ptr %3, align 8
  %204 = getelementptr inbounds nuw %struct.SN_env, ptr %203, i32 0, i32 1
  %205 = load i32, ptr %204, align 8
  %206 = load ptr, ptr %3, align 8
  %207 = getelementptr inbounds nuw %struct.SN_env, ptr %206, i32 0, i32 3
  %208 = load i32, ptr %207, align 8
  %209 = icmp sgt i32 %205, %208
  br i1 %209, label %210, label %211

210:                                              ; preds = %202
  store i32 0, ptr %2, align 4
  br label %222

211:                                              ; preds = %202
  call void @llvm.lifetime.start.p0(i64 4, ptr %11) #3
  %212 = load ptr, ptr %3, align 8
  %213 = call i32 @slice_from_s(ptr noundef %212, i32 noundef 4, ptr noundef @s_83)
  store i32 %213, ptr %11, align 4
  %214 = load i32, ptr %11, align 4
  %215 = icmp slt i32 %214, 0
  br i1 %215, label %216, label %218

216:                                              ; preds = %211
  %217 = load i32, ptr %11, align 4
  store i32 %217, ptr %2, align 4
  store i32 1, ptr %6, align 4
  br label %219

218:                                              ; preds = %211
  store i32 0, ptr %6, align 4
  br label %219

219:                                              ; preds = %218, %216
  call void @llvm.lifetime.end.p0(i64 4, ptr %11) #3
  %220 = load i32, ptr %6, align 4
  switch i32 %220, label %224 [
    i32 0, label %221
    i32 1, label %222
  ]

221:                                              ; preds = %219
  store i32 1, ptr %2, align 4
  br label %222

222:                                              ; preds = %221, %219, %210, %201, %189, %104, %90, %79
  %223 = load i32, ptr %2, align 4
  ret i32 %223

224:                                              ; preds = %219, %189, %104, %79
  unreachable
}