; Function Attrs: nounwind uwtable
define internal fastcc i32 @r_step5c(ptr noundef initializes((24, 28)) %0) unnamed_addr #0 {
  %2 = getelementptr inbounds nuw i8, ptr %0, i64 12
  %3 = load i32, ptr %2, align 4
  %4 = getelementptr inbounds nuw i8, ptr %0, i64 8
  %5 = load i32, ptr %4, align 8
  %.neg = sub i32 %5, %3
  %6 = getelementptr inbounds nuw i8, ptr %0, i64 24
  store i32 %5, ptr %6, align 8
  %7 = add i32 %5, -9
  %8 = getelementptr inbounds nuw i8, ptr %0, i64 16
  %9 = load i32, ptr %8, align 8
  %.not = icmp sgt i32 %7, %9
  br i1 %.not, label %10, label %26

10:                                               ; preds = %1
  %11 = load ptr, ptr %0, align 8
  %12 = add i32 %5, -1
  %13 = sext i32 %12 to i64
  %14 = getelementptr inbounds i8, ptr %11, i64 %13
  %15 = load i8, ptr %14, align 1
  %.not82 = icmp eq i8 %15, -75
  br i1 %.not82, label %16, label %26

16:                                               ; preds = %10
  %17 = tail call i32 @find_among_b(ptr noundef nonnull %0, ptr noundef nonnull @a_40, i32 noundef 1) #2
  %.not83 = icmp eq i32 %17, 0
  br i1 %.not83, label %26, label %18

18:                                               ; preds = %16
  %19 = load i32, ptr %4, align 8
  %20 = getelementptr inbounds nuw i8, ptr %0, i64 20
  store i32 %19, ptr %20, align 4
  %21 = tail call i32 @slice_del(ptr noundef nonnull %0) #2
  %22 = icmp sgt i32 %21, -1
  br i1 %22, label %23, label %.thread

23:                                               ; preds = %18
  %24 = getelementptr inbounds nuw i8, ptr %0, i64 40
  %25 = load ptr, ptr %24, align 8
  store i32 0, ptr %25, align 4
  br label %26

26:                                               ; preds = %23, %10, %1, %16
  %27 = load i32, ptr %2, align 4
  %28 = add i32 %27, %.neg
  store i32 %28, ptr %4, align 8
  store i32 %28, ptr %6, align 8
  %29 = tail call i32 @eq_s_b(ptr noundef nonnull %0, i32 noundef 6, ptr noundef nonnull @s_80) #2
  %.not84 = icmp eq i32 %29, 0
  br i1 %.not84, label %.thread, label %30

30:                                               ; preds = %26
  %31 = load i32, ptr %4, align 8
  %32 = getelementptr inbounds nuw i8, ptr %0, i64 20
  store i32 %31, ptr %32, align 4
  %33 = tail call i32 @slice_del(ptr noundef nonnull %0) #2
  %34 = icmp sgt i32 %33, -1
  br i1 %34, label %35, label %.thread

35:                                               ; preds = %30
  %36 = getelementptr inbounds nuw i8, ptr %0, i64 40
  %37 = load ptr, ptr %36, align 8
  store i32 0, ptr %37, align 4
  %38 = load i32, ptr %2, align 4
  %39 = load i32, ptr %4, align 8
  %40 = sub i32 %38, %39
  store i32 %39, ptr %6, align 8
  store i32 %39, ptr %32, align 4
  %41 = tail call i32 @in_grouping_b_U(ptr noundef nonnull %0, ptr noundef nonnull @g_v2, i32 noundef 945, i32 noundef 969, i32 noundef 0) #2
  %.not85 = icmp eq i32 %41, 0
  br i1 %.not85, label %42, label %45

42:                                               ; preds = %35
  %43 = tail call i32 @slice_from_s(ptr noundef nonnull %0, i32 noundef 4, ptr noundef nonnull @s_81) #2
  %44 = icmp sgt i32 %43, -1
  br i1 %44, label %._crit_edge, label %.thread

45:                                               ; preds = %35
  %46 = load i32, ptr %2, align 4
  %47 = sub i32 %46, %40
  store i32 %47, ptr %4, align 8
  store i32 %47, ptr %6, align 8
  store i32 %47, ptr %32, align 4
  %48 = tail call i32 @find_among_b(ptr noundef nonnull %0, ptr noundef nonnull @a_41, i32 noundef 31) #2
  %.not86 = icmp eq i32 %48, 0
  br i1 %.not86, label %.thread99, label %49

49:                                               ; preds = %45
  %50 = tail call i32 @slice_from_s(ptr noundef nonnull %0, i32 noundef 4, ptr noundef nonnull @s_82) #2
  %51 = icmp sgt i32 %50, -1
  br i1 %51, label %._crit_edge, label %.thread

.thread99:                                        ; preds = %45
  %52 = load i32, ptr %2, align 4
  %53 = sub i32 %52, %40
  store i32 %53, ptr %4, align 8
  store i32 %53, ptr %6, align 8
  br label %54

._crit_edge:                                      ; preds = %42, %49
  %.pre = load i32, ptr %4, align 8
  br label %54

54:                                               ; preds = %._crit_edge, %.thread99
  %55 = phi i32 [ %.pre, %._crit_edge ], [ %53, %.thread99 ]
  store i32 %55, ptr %32, align 4
  %56 = tail call i32 @find_among_b(ptr noundef nonnull %0, ptr noundef nonnull @a_42, i32 noundef 25) #2
  %.not87 = icmp eq i32 %56, 0
  br i1 %.not87, label %.thread, label %57

57:                                               ; preds = %54
  %58 = load i32, ptr %4, align 8
  %59 = load i32, ptr %8, align 8
  %60 = icmp sgt i32 %58, %59
  br i1 %60, label %.thread, label %61

61:                                               ; preds = %57
  %62 = tail call i32 @slice_from_s(ptr noundef nonnull %0, i32 noundef 4, ptr noundef nonnull @s_83) #2
  %63 = icmp sgt i32 %62, -1
  %spec.select = select i1 %63, i32 1, i32 %62
  br label %.thread

.thread:                                          ; preds = %42, %49, %18, %61, %30, %57, %54, %26
  %.3 = phi i32 [ %33, %30 ], [ 0, %26 ], [ 0, %54 ], [ 0, %57 ], [ %spec.select, %61 ], [ %21, %18 ], [ %43, %42 ], [ %50, %49 ]
  ret i32 %.3
}